target datalayout = "e-m:e-p270:32:32-p271:32:32-p272:64:64-i64:64-i128:128-f80:128-n8:16:32:64-S128"
target triple = "x86_64-pc-linux-gnu"

%"class.llvm::MCInstrDesc" = type { i16, i16, i8, i8, i16, i8, i8, i16, i16, i64, i64 }

; Function Attrs: mustprogress nounwind uwtable
define linkonce_odr hidden noundef i32 @_ZNK4llvm11MCInstrDesc10getNumDefsEv(ptr noundef nonnull align 8 dereferenceable(32) %0) #0 comdat align 2 {
  %2 = alloca ptr, align 8
  store ptr %0, ptr %2, align 8
  %3 = load ptr, ptr %2, align 8
  %4 = getelementptr inbounds nuw %"class.llvm::MCInstrDesc", ptr %3, i32 0, i32 2
  %5 = load i8, ptr %4, align 4
  %6 = zext i8 %5 to i32
  ret i32 %6
}

; Function Attrs: mustprogress nounwind uwtable
define linkonce_odr hidden noundef i32 @_ZNK4llvm11MCInstrDesc14getNumOperandsEv(ptr noundef nonnull align 8 dereferenceable(32) %0) #0 comdat align 2 {
  %2 = alloca ptr, align 8
  store ptr %0, ptr %2, align 8
  %3 = load ptr, ptr %2, align 8
  %4 = getelementptr inbounds nuw %"class.llvm::MCInstrDesc", ptr %3, i32 0, i32 1
  %5 = load i16, ptr %4, align 2
  %6 = zext i16 %5 to i32
  ret i32 %6
}

; Function Attrs: mustprogress nounwind uwtable
define linkonce_odr hidden noundef i32 @_ZNK4llvm11MCInstrDesc9getOpcodeEv(ptr noundef nonnull align 8 dereferenceable(32) %0) #0 comdat align 2 {
  %2 = alloca ptr, align 8
  store ptr %0, ptr %2, align 8
  %3 = load ptr, ptr %2, align 8
  %4 = getelementptr inbounds nuw %"class.llvm::MCInstrDesc", ptr %3, i32 0, i32 0
  %5 = load i16, ptr %4, align 8
  %6 = zext i16 %5 to i32
  ret i32 %6
}

; Function Attrs: mustprogress nounwind uwtable
define dso_local noundef i32 @_ZN4llvm3X8620getCondSrcNoFromDescERKNS_11MCInstrDescE(ptr noundef nonnull align 8 dereferenceable(32) %0) #0 {
  %2 = alloca i32, align 4
  %3 = alloca ptr, align 8
  %4 = alloca i32, align 4
  %5 = alloca i32, align 4
  store ptr %0, ptr %3, align 8
  %6 = load ptr, ptr %3, align 8
  %7 = call noundef i32 @_ZNK4llvm11MCInstrDesc9getOpcodeEv(ptr noundef nonnull align 8 dereferenceable(32) %6)
  store i32 %7, ptr %4, align 4
  %8 = load i32, ptr %4, align 4
  %9 = call noundef zeroext i1 @_ZN4llvm3X865isJCCEj(i32 noundef %8)
  br i1 %9, label %29, label %10

10:                                               ; preds = %1
  %11 = load i32, ptr %4, align 4
  %12 = call noundef zeroext i1 @_ZN4llvm3X867isSETCCEj(i32 noundef %11)
  br i1 %12, label %29, label %13

13:                                               ; preds = %10
  %14 = load i32, ptr %4, align 4
  %15 = call noundef zeroext i1 @_ZN4llvm3X869isSETZUCCEj(i32 noundef %14)
  br i1 %15, label %29, label %16

16:                                               ; preds = %13
  %17 = load i32, ptr %4, align 4
  %18 = call noundef zeroext i1 @_ZN4llvm3X868isCMOVCCEj(i32 noundef %17)
  br i1 %18, label %29, label %19

19:                                               ; preds = %16
  %20 = load i32, ptr %4, align 4
  %21 = call noundef zeroext i1 @_ZN4llvm3X8610isCFCMOVCCEj(i32 noundef %20)
  br i1 %21, label %29, label %22

22:                                               ; preds = %19
  %23 = load i32, ptr %4, align 4
  %24 = call noundef zeroext i1 @_ZN4llvm3X868isCCMPCCEj(i32 noundef %23)
  br i1 %24, label %29, label %25

25:                                               ; preds = %22
  %26 = load i32, ptr %4, align 4
  %27 = call noundef zeroext i1 @_ZN4llvm3X869isCTESTCCEj(i32 noundef %26)
  br i1 %27, label %29, label %28

28:                                               ; preds = %25
  store i32 -1, ptr %2, align 4
  br label %37

29:                                               ; preds = %25, %22, %19, %16, %13, %10, %1
  %30 = load ptr, ptr %3, align 8
  %31 = call noundef i32 @_ZNK4llvm11MCInstrDesc14getNumOperandsEv(ptr noundef nonnull align 8 dereferenceable(32) %30)
  %32 = load ptr, ptr %3, align 8
  %33 = call noundef i32 @_ZNK4llvm11MCInstrDesc10getNumDefsEv(ptr noundef nonnull align 8 dereferenceable(32) %32)
  %34 = sub i32 %31, %33
  store i32 %34, ptr %5, align 4
  %35 = load i32, ptr %5, align 4
  %36 = sub i32 %35, 1
  store i32 %36, ptr %2, align 4
  br label %37

37:                                               ; preds = %29, %28
  %38 = load i32, ptr %2, align 4
  ret i32 %38
}