; Function Attrs: mustprogress nounwind uwtable
define dso_local noundef range(i32 -256, 65535) i32 @_ZN4llvm3X8620getCondSrcNoFromDescERKNS_11MCInstrDescE(ptr noundef nonnull readonly align 8 captures(none) dereferenceable(32) %0) local_unnamed_addr #1 {
  %2 = load i16, ptr %0, align 8
  %3 = zext i16 %2 to i32
  %4 = tail call noundef zeroext i1 @_ZN4llvm3X865isJCCEj(i32 noundef %3) #29
  br i1 %4, label %17, label %5

5:                                                ; preds = %1
  %6 = tail call noundef zeroext i1 @_ZN4llvm3X867isSETCCEj(i32 noundef %3) #29
  br i1 %6, label %17, label %7

7:                                                ; preds = %5
  %8 = tail call noundef zeroext i1 @_ZN4llvm3X869isSETZUCCEj(i32 noundef %3) #29
  br i1 %8, label %17, label %9

9:                                                ; preds = %7
  %10 = tail call noundef zeroext i1 @_ZN4llvm3X868isCMOVCCEj(i32 noundef %3) #29
  br i1 %10, label %17, label %11

11:                                               ; preds = %9
  %12 = tail call noundef zeroext i1 @_ZN4llvm3X8610isCFCMOVCCEj(i32 noundef %3) #29
  br i1 %12, label %17, label %13

13:                                               ; preds = %11
  %14 = tail call noundef zeroext i1 @_ZN4llvm3X868isCCMPCCEj(i32 noundef %3) #29
  br i1 %14, label %17, label %15

15:                                               ; preds = %13
  %16 = tail call noundef zeroext i1 @_ZN4llvm3X869isCTESTCCEj(i32 noundef %3) #29
  br i1 %16, label %17, label %26

17:                                               ; preds = %15, %13, %11, %9, %7, %5, %1
  %18 = getelementptr inbounds nuw i8, ptr %0, i64 2
  %19 = load i16, ptr %18, align 2
  %20 = zext i16 %19 to i32
  %21 = getelementptr inbounds nuw i8, ptr %0, i64 4
  %22 = load i8, ptr %21, align 4
  %23 = zext i8 %22 to i32
  %24 = xor i32 %23, -1
  %25 = add nsw i32 %24, %20
  br label %26

26:                                               ; preds = %15, %17
  %.0 = phi i32 [ %25, %17 ], [ -1, %15 ]
  ret i32 %.0
}